; Listing generated by Microsoft (R) Optimizing Compiler Version 19.44.35216.0 

include listing.inc

INCLUDELIB LIBCMT
INCLUDELIB OLDNAMES

PUBLIC	__local_stdio_printf_options
PUBLIC	_vfprintf_l
PUBLIC	fprintf
PUBLIC	printf
PUBLIC	load_bmp
PUBLIC	free_bmp
PUBLIC	fill_bmp
PUBLIC	save_bmp
PUBLIC	rotate_bmp
PUBLIC	scale_bmp
PUBLIC	embed_message
PUBLIC	extract_message
PUBLIC	free_message
PUBLIC	resize_bmp
PUBLIC	crop_bmp
PUBLIC	__real@4000000000000000
PUBLIC	__real@400921fb54442d18
PUBLIC	__real@4066800000000000
PUBLIC	__xmm@80000000000000008000000000000000
EXTRN	__acrt_iob_func:PROC
EXTRN	fclose:PROC
EXTRN	fopen:PROC
EXTRN	fread:PROC
EXTRN	fseek:PROC
EXTRN	fwrite:PROC
EXTRN	perror:PROC
EXTRN	__stdio_common_vfprintf:PROC
EXTRN	free:PROC
EXTRN	malloc:PROC
EXTRN	cos:PROC
EXTRN	sin:PROC
EXTRN	round:PROC
EXTRN	memcpy:PROC
EXTRN	memset:PROC
EXTRN	strlen:PROC
EXTRN	_fltused:DWORD
_DATA	SEGMENT
COMM	?_OptionsStorage@?1??__local_stdio_printf_options@@9@9:QWORD							; `__local_stdio_printf_options'::`2'::_OptionsStorage
_DATA	ENDS
;	COMDAT pdata
pdata	SEGMENT
$pdata$_vfprintf_l DD imagerel $LN3
	DD	imagerel $LN3+67
	DD	imagerel $unwind$_vfprintf_l
pdata	ENDS
;	COMDAT pdata
pdata	SEGMENT
$pdata$fprintf DD imagerel $LN3
	DD	imagerel $LN3+79
	DD	imagerel $unwind$fprintf
pdata	ENDS
;	COMDAT pdata
pdata	SEGMENT
$pdata$printf DD imagerel $LN3
	DD	imagerel $LN3+87
	DD	imagerel $unwind$printf
pdata	ENDS
pdata	SEGMENT
$pdata$load_bmp DD imagerel $LN7
	DD	imagerel $LN7+363
	DD	imagerel $unwind$load_bmp
$pdata$free_bmp DD imagerel $LN4
	DD	imagerel $LN4+47
	DD	imagerel $unwind$free_bmp
$pdata$fill_bmp DD imagerel $LN12
	DD	imagerel $LN12+298
	DD	imagerel $unwind$fill_bmp
$pdata$save_bmp DD imagerel $LN4
	DD	imagerel $LN4+165
	DD	imagerel $unwind$save_bmp
$pdata$rotate_bmp DD imagerel $LN16
	DD	imagerel $LN16+941
	DD	imagerel $unwind$rotate_bmp
$pdata$scale_bmp DD imagerel $LN13
	DD	imagerel $LN13+719
	DD	imagerel $unwind$scale_bmp
$pdata$embed_message DD imagerel $LN22
	DD	imagerel $LN22+1075
	DD	imagerel $unwind$embed_message
$pdata$extract_message DD imagerel $LN34
	DD	imagerel $LN34+1568
	DD	imagerel $unwind$extract_message
$pdata$free_message DD imagerel $LN3
	DD	imagerel $LN3+25
	DD	imagerel $unwind$free_message
$pdata$resize_bmp DD imagerel $LN18
	DD	imagerel $LN18+772
	DD	imagerel $unwind$resize_bmp
$pdata$crop_bmp DD imagerel $LN17
	DD	imagerel $LN17+741
	DD	imagerel $unwind$crop_bmp
$pdata$row_size DD imagerel row_size
	DD	imagerel row_size+82
	DD	imagerel $unwind$row_size
$pdata$get_bit_from_byte DD imagerel get_bit_from_byte
	DD	imagerel get_bit_from_byte+95
	DD	imagerel $unwind$get_bit_from_byte
pdata	ENDS
;	COMDAT __xmm@80000000000000008000000000000000
CONST	SEGMENT
__xmm@80000000000000008000000000000000 DB 00H, 00H, 00H, 00H, 00H, 00H, 00H
	DB	080H, 00H, 00H, 00H, 00H, 00H, 00H, 00H, 080H
CONST	ENDS
;	COMDAT __real@4066800000000000
CONST	SEGMENT
__real@4066800000000000 DQ 04066800000000000r	; 180
CONST	ENDS
;	COMDAT __real@400921fb54442d18
CONST	SEGMENT
__real@400921fb54442d18 DQ 0400921fb54442d18r	; 3.14159
CONST	ENDS
;	COMDAT __real@4000000000000000
CONST	SEGMENT
__real@4000000000000000 DQ 04000000000000000r	; 2
CONST	ENDS
_DATA	SEGMENT
$SG12153 DB	'rb', 00H
	ORG $+5
$SG12155 DB	'Error opening file', 00H
	ORG $+5
$SG12158 DB	'Not a BMP file!', 0aH, 00H
	ORG $+3
$SG12187 DB	'wb', 00H
	ORG $+1
$SG12229 DB	'Unssuported BMP format for rotation!', 0aH, 00H
	ORG $+2
$SG12344 DB	'embed_message: only 24-bit or 32-bit BMP supported', 0aH
	DB	00H
	ORG $+12
$SG12346 DB	'embed_message: not enough capacity. need %llu bytes, hav'
	DB	'e %llu bytes', 0aH, 00H
	ORG $+10
$SG12349 DB	'embed_message: internal error: embedded %llu bits, expec'
	DB	'ted %llu', 0aH, 00H
	ORG $+6
$SG12425 DB	'extract_message: only 24-bit or 32-bit BMP supported', 0aH
	DB	00H
	ORG $+2
$SG12427 DB	'extract_message: image too small to contain length heade'
	DB	'r', 0aH, 00H
	ORG $+5
$SG12428 DB	'Extracted length = %u', 0aH, 00H
	ORG $+1
$SG12430 DB	'extract_message: declared message length %u exceeds capa'
	DB	'city', 0aH, 00H
	ORG $+2
$SG12472 DB	'resize_bmp: only supports 24/32-bit images', 0aH, 00H
	ORG $+4
$SG12506 DB	'crop_bmp: only supports 24/32-bit images', 0aH, 00H
	ORG $+6
$SG12509 DB	'crop_bmp: crop rectangle out of bounds', 0aH, 00H
_DATA	ENDS
xdata	SEGMENT
$unwind$load_bmp DD 010901H
	DD	06209H
$unwind$free_bmp DD 010901H
	DD	04209H
$unwind$fill_bmp DD 010e01H
	DD	0420eH
$unwind$save_bmp DD 010e01H
	DD	0620eH
$unwind$rotate_bmp DD 041401H
	DD	0130114H
	DD	0600c700dH
$unwind$scale_bmp DD 031101H
	DD	0700dc211H
	DD	0600cH
$unwind$embed_message DD 021601H
	DD	0170116H
$unwind$extract_message DD 021001H
	DD	0210110H
$unwind$free_message DD 010901H
	DD	04209H
$unwind$resize_bmp DD 021501H
	DD	0110115H
$unwind$crop_bmp DD 011701H
	DD	0c217H
$unwind$row_size DD 010901H
	DD	02209H
$unwind$get_bit_from_byte DD 010c01H
	DD	0220cH
xdata	ENDS
;	COMDAT xdata
xdata	SEGMENT
$unwind$printf DD 011801H
	DD	06218H
xdata	ENDS
;	COMDAT xdata
xdata	SEGMENT
$unwind$fprintf DD 011801H
	DD	06218H
xdata	ENDS
;	COMDAT xdata
xdata	SEGMENT
$unwind$_vfprintf_l DD 011801H
	DD	06218H
xdata	ENDS
; Function compile flags: /Odsp
_TEXT	SEGMENT
tv68 = 0
tv72 = 4
byte$ = 32
use_msb$ = 40
get_bit_from_byte PROC
; File C:\Software Analysis & Debugging\hw01\src\image.c
; Line 296
	mov	DWORD PTR [rsp+16], edx
	mov	BYTE PTR [rsp+8], cl
	sub	rsp, 24
; Line 297
	cmp	DWORD PTR use_msb$[rsp], 0
	je	SHORT $LN2@get_bit_fr
; Line 299
	movzx	eax, BYTE PTR byte$[rsp]
	and	eax, 128				; 00000080H
	test	eax, eax
	je	SHORT $LN5@get_bit_fr
	mov	DWORD PTR tv68[rsp], 1
	jmp	SHORT $LN6@get_bit_fr
$LN5@get_bit_fr:
	mov	DWORD PTR tv68[rsp], 0
$LN6@get_bit_fr:
	mov	eax, DWORD PTR tv68[rsp]
	jmp	SHORT $LN1@get_bit_fr
; Line 300
	jmp	SHORT $LN3@get_bit_fr
$LN2@get_bit_fr:
; Line 303
	movzx	eax, BYTE PTR byte$[rsp]
	and	eax, 1
	test	eax, eax
	je	SHORT $LN7@get_bit_fr
	mov	DWORD PTR tv72[rsp], 1
	jmp	SHORT $LN8@get_bit_fr
$LN7@get_bit_fr:
	mov	DWORD PTR tv72[rsp], 0
$LN8@get_bit_fr:
	mov	eax, DWORD PTR tv72[rsp]
$LN3@get_bit_fr:
$LN1@get_bit_fr:
; Line 305
	add	rsp, 24
	ret	0
get_bit_from_byte ENDP
_TEXT	ENDS
; Function compile flags: /Odsp
_TEXT	SEGMENT
byte$ = 8
bit_val$ = 16
use_msb$ = 24
set_bit_in_byte PROC
; File C:\Software Analysis & Debugging\hw01\src\image.c
; Line 275
	mov	DWORD PTR [rsp+24], r8d
	mov	DWORD PTR [rsp+16], edx
	mov	QWORD PTR [rsp+8], rcx
; Line 276
	cmp	DWORD PTR use_msb$[rsp], 0
	je	SHORT $LN2@set_bit_in
; Line 279
	cmp	DWORD PTR bit_val$[rsp], 0
	je	SHORT $LN4@set_bit_in
; Line 280
	mov	rax, QWORD PTR byte$[rsp]
	movzx	eax, BYTE PTR [rax]
	bts	eax, 7
	mov	rcx, QWORD PTR byte$[rsp]
	mov	BYTE PTR [rcx], al
	jmp	SHORT $LN5@set_bit_in
$LN4@set_bit_in:
; Line 282
	mov	rax, QWORD PTR byte$[rsp]
	movzx	eax, BYTE PTR [rax]
	and	eax, 127				; 0000007fH
	mov	rcx, QWORD PTR byte$[rsp]
	mov	BYTE PTR [rcx], al
$LN5@set_bit_in:
; Line 283
	jmp	SHORT $LN3@set_bit_in
$LN2@set_bit_in:
; Line 287
	cmp	DWORD PTR bit_val$[rsp], 0
	je	SHORT $LN6@set_bit_in
; Line 288
	mov	rax, QWORD PTR byte$[rsp]
	movzx	eax, BYTE PTR [rax]
	or	eax, 1
	mov	rcx, QWORD PTR byte$[rsp]
	mov	BYTE PTR [rcx], al
	jmp	SHORT $LN7@set_bit_in
$LN6@set_bit_in:
; Line 290
	mov	rax, QWORD PTR byte$[rsp]
	movzx	eax, BYTE PTR [rax]
	and	eax, 254				; 000000feH
	mov	rcx, QWORD PTR byte$[rsp]
	mov	BYTE PTR [rcx], al
$LN7@set_bit_in:
$LN3@set_bit_in:
; Line 292
	ret	0
set_bit_in_byte ENDP
_TEXT	ENDS
; Function compile flags: /Odsp
_TEXT	SEGMENT
w$ = 0
bytesPerPixel$ = 4
row$ = 8
dib$ = 32
row_size PROC
; File C:\Software Analysis & Debugging\hw01\src\image.c
; Line 266
	mov	QWORD PTR [rsp+8], rcx
	sub	rsp, 24
; Line 267
	mov	rax, QWORD PTR dib$[rsp]
	movzx	eax, WORD PTR [rax+14]
	cdq
	and	edx, 7
	add	eax, edx
	sar	eax, 3
	mov	DWORD PTR bytesPerPixel$[rsp], eax
; Line 268
	mov	rax, QWORD PTR dib$[rsp]
	mov	eax, DWORD PTR [rax+4]
	mov	DWORD PTR w$[rsp], eax
; Line 269
	movsxd	rax, DWORD PTR w$[rsp]
	movsxd	rcx, DWORD PTR bytesPerPixel$[rsp]
	imul	rax, rcx
	add	rax, 3
	mov	ecx, -4					; fffffffcH
	and	rax, rcx
	mov	QWORD PTR row$[rsp], rax
; Line 270
	mov	rax, QWORD PTR row$[rsp]
; Line 271
	add	rsp, 24
	ret	0
row_size ENDP
_TEXT	ENDS
; Function compile flags: /Odsp
_TEXT	SEGMENT
dst$ = 32
row$1 = 40
bpp$ = 44
tv73 = 48
tv145 = 52
src_width$ = 56
row_size_dst$ = 60
src_height$ = 64
row_size_src$ = 68
src_row$2 = 72
dst_row$3 = 80
src$ = 112
x$ = 120
y$ = 128
crop_width$ = 136
crop_height$ = 144
crop_bmp PROC
; File C:\Software Analysis & Debugging\hw01\src\image.c
; Line 579
$LN17:
	mov	DWORD PTR [rsp+32], r9d
	mov	DWORD PTR [rsp+24], r8d
	mov	DWORD PTR [rsp+16], edx
	mov	QWORD PTR [rsp+8], rcx
	sub	rsp, 104				; 00000068H
; Line 580
	cmp	QWORD PTR src$[rsp], 0
	je	SHORT $LN6@crop_bmp
	cmp	DWORD PTR crop_width$[rsp], 0
	jle	SHORT $LN6@crop_bmp
	cmp	DWORD PTR crop_height$[rsp], 0
	jg	SHORT $LN5@crop_bmp
$LN6@crop_bmp:
; Line 581
	xor	eax, eax
	jmp	$LN1@crop_bmp
$LN5@crop_bmp:
; Line 583
	mov	rax, QWORD PTR src$[rsp]
	mov	eax, DWORD PTR [rax+18]
	mov	DWORD PTR src_width$[rsp], eax
; Line 584
	mov	rax, QWORD PTR src$[rsp]
	cmp	DWORD PTR [rax+22], 0
	jle	SHORT $LN13@crop_bmp
	mov	rax, QWORD PTR src$[rsp]
	mov	eax, DWORD PTR [rax+22]
	mov	DWORD PTR tv73[rsp], eax
	jmp	SHORT $LN14@crop_bmp
$LN13@crop_bmp:
	mov	rax, QWORD PTR src$[rsp]
	mov	eax, DWORD PTR [rax+22]
	neg	eax
	mov	DWORD PTR tv73[rsp], eax
$LN14@crop_bmp:
	mov	eax, DWORD PTR tv73[rsp]
	mov	DWORD PTR src_height$[rsp], eax
; Line 585
	mov	rax, QWORD PTR src$[rsp]
	movzx	eax, WORD PTR [rax+28]
	cdq
	and	edx, 7
	add	eax, edx
	sar	eax, 3
	mov	DWORD PTR bpp$[rsp], eax
; Line 586
	cmp	DWORD PTR bpp$[rsp], 3
	jge	SHORT $LN7@crop_bmp
; Line 588
	mov	ecx, 2
	call	__acrt_iob_func
	lea	rdx, OFFSET FLAT:$SG12506
	mov	rcx, rax
	call	fprintf
; Line 589
	xor	eax, eax
	jmp	$LN1@crop_bmp
$LN7@crop_bmp:
; Line 593
	cmp	DWORD PTR x$[rsp], 0
	jl	SHORT $LN9@crop_bmp
	cmp	DWORD PTR y$[rsp], 0
	jl	SHORT $LN9@crop_bmp
	mov	eax, DWORD PTR crop_width$[rsp]
	mov	ecx, DWORD PTR x$[rsp]
	add	ecx, eax
	mov	eax, ecx
	cmp	eax, DWORD PTR src_width$[rsp]
	jg	SHORT $LN9@crop_bmp
	mov	eax, DWORD PTR crop_height$[rsp]
	mov	ecx, DWORD PTR y$[rsp]
	add	ecx, eax
	mov	eax, ecx
	cmp	eax, DWORD PTR src_height$[rsp]
	jle	SHORT $LN8@crop_bmp
$LN9@crop_bmp:
; Line 595
	mov	ecx, 2
	call	__acrt_iob_func
	lea	rdx, OFFSET FLAT:$SG12509
	mov	rcx, rax
	call	fprintf
; Line 596
	xor	eax, eax
	jmp	$LN1@crop_bmp
$LN8@crop_bmp:
; Line 600
	mov	ecx, 64					; 00000040H
	call	malloc
	mov	QWORD PTR dst$[rsp], rax
; Line 601
	cmp	QWORD PTR dst$[rsp], 0
	jne	SHORT $LN10@crop_bmp
; Line 602
	xor	eax, eax
	jmp	$LN1@crop_bmp
$LN10@crop_bmp:
; Line 603
	mov	rax, QWORD PTR src$[rsp]
	mov	rcx, QWORD PTR dst$[rsp]
	mov	r8d, 14
	mov	rdx, rax
	call	memcpy
; Line 604
	mov	rax, QWORD PTR src$[rsp]
	add	rax, 14
	mov	rcx, QWORD PTR dst$[rsp]
	add	rcx, 14
	mov	r8d, 40					; 00000028H
	mov	rdx, rax
	call	memcpy
; Line 606
	mov	rax, QWORD PTR dst$[rsp]
	mov	ecx, DWORD PTR crop_width$[rsp]
	mov	DWORD PTR [rax+18], ecx
; Line 607
	mov	rax, QWORD PTR src$[rsp]
	cmp	DWORD PTR [rax+22], 0
	jle	SHORT $LN15@crop_bmp
	mov	eax, DWORD PTR crop_height$[rsp]
	mov	DWORD PTR tv145[rsp], eax
	jmp	SHORT $LN16@crop_bmp
$LN15@crop_bmp:
	mov	eax, DWORD PTR crop_height$[rsp]
	neg	eax
	mov	DWORD PTR tv145[rsp], eax
$LN16@crop_bmp:
	mov	rax, QWORD PTR dst$[rsp]
	mov	ecx, DWORD PTR tv145[rsp]
	mov	DWORD PTR [rax+22], ecx
; Line 610
	mov	eax, DWORD PTR src_width$[rsp]
	imul	eax, DWORD PTR bpp$[rsp]
	add	eax, 3
	cdq
	and	edx, 3
	add	eax, edx
	sar	eax, 2
	shl	eax, 2
	mov	DWORD PTR row_size_src$[rsp], eax
; Line 611
	mov	eax, DWORD PTR crop_width$[rsp]
	imul	eax, DWORD PTR bpp$[rsp]
	add	eax, 3
	cdq
	and	edx, 3
	add	eax, edx
	sar	eax, 2
	shl	eax, 2
	mov	DWORD PTR row_size_dst$[rsp], eax
; Line 612
	mov	eax, DWORD PTR row_size_dst$[rsp]
	imul	eax, DWORD PTR crop_height$[rsp]
	mov	rcx, QWORD PTR dst$[rsp]
	mov	DWORD PTR [rcx+34], eax
; Line 613
	mov	rax, QWORD PTR dst$[rsp]
	mov	eax, DWORD PTR [rax+34]
	mov	rcx, QWORD PTR dst$[rsp]
	add	eax, DWORD PTR [rcx+10]
	mov	rcx, QWORD PTR dst$[rsp]
	mov	DWORD PTR [rcx+2], eax
; Line 615
	mov	rax, QWORD PTR dst$[rsp]
	mov	eax, DWORD PTR [rax+34]
	mov	ecx, eax
	call	malloc
	mov	rcx, QWORD PTR dst$[rsp]
	mov	QWORD PTR [rcx+56], rax
; Line 616
	mov	rax, QWORD PTR dst$[rsp]
	cmp	QWORD PTR [rax+56], 0
	jne	SHORT $LN11@crop_bmp
; Line 618
	mov	rcx, QWORD PTR dst$[rsp]
	call	free
; Line 619
	xor	eax, eax
	jmp	$LN1@crop_bmp
$LN11@crop_bmp:
; Line 623
	mov	DWORD PTR row$1[rsp], 0
	jmp	SHORT $LN4@crop_bmp
$LN2@crop_bmp:
	mov	eax, DWORD PTR row$1[rsp]
	inc	eax
	mov	DWORD PTR row$1[rsp], eax
$LN4@crop_bmp:
	mov	eax, DWORD PTR crop_height$[rsp]
	cmp	DWORD PTR row$1[rsp], eax
	jge	SHORT $LN3@crop_bmp
; Line 625
	mov	eax, DWORD PTR row$1[rsp]
	imul	eax, DWORD PTR row_size_dst$[rsp]
	cdqe
	mov	rcx, QWORD PTR dst$[rsp]
	add	rax, QWORD PTR [rcx+56]
	mov	QWORD PTR dst_row$3[rsp], rax
; Line 626
	mov	eax, DWORD PTR row$1[rsp]
	mov	ecx, DWORD PTR y$[rsp]
	add	ecx, eax
	mov	eax, ecx
	imul	eax, DWORD PTR row_size_src$[rsp]
	cdqe
	mov	rcx, QWORD PTR src$[rsp]
	mov	rcx, QWORD PTR [rcx+56]
	add	rcx, rax
	mov	rax, rcx
	mov	ecx, DWORD PTR x$[rsp]
	imul	ecx, DWORD PTR bpp$[rsp]
	movsxd	rcx, ecx
	add	rax, rcx
	mov	QWORD PTR src_row$2[rsp], rax
; Line 627
	mov	eax, DWORD PTR crop_width$[rsp]
	imul	eax, DWORD PTR bpp$[rsp]
	cdqe
	mov	r8, rax
	mov	rdx, QWORD PTR src_row$2[rsp]
	mov	rcx, QWORD PTR dst_row$3[rsp]
	call	memcpy
	npad	1
; Line 628
	jmp	$LN2@crop_bmp
$LN3@crop_bmp:
; Line 630
	mov	rax, QWORD PTR dst$[rsp]
$LN1@crop_bmp:
; Line 631
	add	rsp, 104				; 00000068H
	ret	0
crop_bmp ENDP
_TEXT	ENDS
; Function compile flags: /Odsp
_TEXT	SEGMENT
dst$ = 32
bpp$ = 40
y$1 = 44
x$2 = 48
tv73 = 52
tv135 = 56
row_size_dst$ = 60
src_width$ = 64
src_height$ = 68
src_y$3 = 72
row_size_src$ = 76
src_x$4 = 80
dst_row$5 = 88
src_row$6 = 96
src_px$7 = 104
dst_px$8 = 112
src$ = 144
new_width$ = 152
new_height$ = 160
resize_bmp PROC
; File C:\Software Analysis & Debugging\hw01\src\image.c
; Line 521
$LN18:
	mov	DWORD PTR [rsp+24], r8d
	mov	DWORD PTR [rsp+16], edx
	mov	QWORD PTR [rsp+8], rcx
	sub	rsp, 136				; 00000088H
; Line 522
	cmp	QWORD PTR src$[rsp], 0
	je	SHORT $LN9@resize_bmp
	cmp	DWORD PTR new_width$[rsp], 0
	jle	SHORT $LN9@resize_bmp
	cmp	DWORD PTR new_height$[rsp], 0
	jg	SHORT $LN8@resize_bmp
$LN9@resize_bmp:
; Line 523
	xor	eax, eax
	jmp	$LN1@resize_bmp
$LN8@resize_bmp:
; Line 526
	mov	rax, QWORD PTR src$[rsp]
	mov	eax, DWORD PTR [rax+18]
	mov	DWORD PTR src_width$[rsp], eax
; Line 527
	mov	rax, QWORD PTR src$[rsp]
	cmp	DWORD PTR [rax+22], 0
	jle	SHORT $LN14@resize_bmp
	mov	rax, QWORD PTR src$[rsp]
	mov	eax, DWORD PTR [rax+22]
	mov	DWORD PTR tv73[rsp], eax
	jmp	SHORT $LN15@resize_bmp
$LN14@resize_bmp:
	mov	rax, QWORD PTR src$[rsp]
	mov	eax, DWORD PTR [rax+22]
	neg	eax
	mov	DWORD PTR tv73[rsp], eax
$LN15@resize_bmp:
	mov	eax, DWORD PTR tv73[rsp]
	mov	DWORD PTR src_height$[rsp], eax
; Line 528
	mov	rax, QWORD PTR src$[rsp]
	movzx	eax, WORD PTR [rax+28]
	cdq
	and	edx, 7
	add	eax, edx
	sar	eax, 3
	mov	DWORD PTR bpp$[rsp], eax
; Line 529
	cmp	DWORD PTR bpp$[rsp], 3
	jge	SHORT $LN10@resize_bmp
; Line 531
	mov	ecx, 2
	call	__acrt_iob_func
	lea	rdx, OFFSET FLAT:$SG12472
	mov	rcx, rax
	call	fprintf
; Line 532
	xor	eax, eax
	jmp	$LN1@resize_bmp
$LN10@resize_bmp:
; Line 536
	mov	ecx, 64					; 00000040H
	call	malloc
	mov	QWORD PTR dst$[rsp], rax
; Line 537
	cmp	QWORD PTR dst$[rsp], 0
	jne	SHORT $LN11@resize_bmp
; Line 538
	xor	eax, eax
	jmp	$LN1@resize_bmp
$LN11@resize_bmp:
; Line 539
	mov	rax, QWORD PTR src$[rsp]
	mov	rcx, QWORD PTR dst$[rsp]
	mov	r8d, 14
	mov	rdx, rax
	call	memcpy
; Line 540
	mov	rax, QWORD PTR src$[rsp]
	add	rax, 14
	mov	rcx, QWORD PTR dst$[rsp]
	add	rcx, 14
	mov	r8d, 40					; 00000028H
	mov	rdx, rax
	call	memcpy
; Line 543
	mov	rax, QWORD PTR dst$[rsp]
	mov	ecx, DWORD PTR new_width$[rsp]
	mov	DWORD PTR [rax+18], ecx
; Line 544
	mov	rax, QWORD PTR src$[rsp]
	cmp	DWORD PTR [rax+22], 0
	jle	SHORT $LN16@resize_bmp
	mov	eax, DWORD PTR new_height$[rsp]
	mov	DWORD PTR tv135[rsp], eax
	jmp	SHORT $LN17@resize_bmp
$LN16@resize_bmp:
	mov	eax, DWORD PTR new_height$[rsp]
	neg	eax
	mov	DWORD PTR tv135[rsp], eax
$LN17@resize_bmp:
	mov	rax, QWORD PTR dst$[rsp]
	mov	ecx, DWORD PTR tv135[rsp]
	mov	DWORD PTR [rax+22], ecx
; Line 546
	mov	eax, DWORD PTR src_width$[rsp]
	imul	eax, DWORD PTR bpp$[rsp]
	add	eax, 3
	cdq
	and	edx, 3
	add	eax, edx
	sar	eax, 2
	shl	eax, 2
	mov	DWORD PTR row_size_src$[rsp], eax
; Line 547
	mov	eax, DWORD PTR new_width$[rsp]
	imul	eax, DWORD PTR bpp$[rsp]
	add	eax, 3
	cdq
	and	edx, 3
	add	eax, edx
	sar	eax, 2
	shl	eax, 2
	mov	DWORD PTR row_size_dst$[rsp], eax
; Line 548
	mov	eax, DWORD PTR row_size_dst$[rsp]
	imul	eax, DWORD PTR new_height$[rsp]
	mov	rcx, QWORD PTR dst$[rsp]
	mov	DWORD PTR [rcx+34], eax
; Line 549
	mov	rax, QWORD PTR dst$[rsp]
	mov	eax, DWORD PTR [rax+34]
	mov	rcx, QWORD PTR dst$[rsp]
	add	eax, DWORD PTR [rcx+10]
	mov	rcx, QWORD PTR dst$[rsp]
	mov	DWORD PTR [rcx+2], eax
; Line 551
	mov	rax, QWORD PTR dst$[rsp]
	mov	eax, DWORD PTR [rax+34]
	mov	ecx, eax
	call	malloc
	mov	rcx, QWORD PTR dst$[rsp]
	mov	QWORD PTR [rcx+56], rax
; Line 552
	mov	rax, QWORD PTR dst$[rsp]
	cmp	QWORD PTR [rax+56], 0
	jne	SHORT $LN12@resize_bmp
; Line 554
	mov	rcx, QWORD PTR dst$[rsp]
	call	free
; Line 555
	xor	eax, eax
	jmp	$LN1@resize_bmp
$LN12@resize_bmp:
; Line 559
	mov	DWORD PTR y$1[rsp], 0
	jmp	SHORT $LN4@resize_bmp
$LN2@resize_bmp:
	mov	eax, DWORD PTR y$1[rsp]
	inc	eax
	mov	DWORD PTR y$1[rsp], eax
$LN4@resize_bmp:
	mov	eax, DWORD PTR new_height$[rsp]
	cmp	DWORD PTR y$1[rsp], eax
	jge	$LN3@resize_bmp
; Line 561
	mov	eax, DWORD PTR y$1[rsp]
	imul	eax, DWORD PTR src_height$[rsp]
	cdq
	idiv	DWORD PTR new_height$[rsp]
	mov	DWORD PTR src_y$3[rsp], eax
; Line 562
	mov	eax, DWORD PTR y$1[rsp]
	imul	eax, DWORD PTR row_size_dst$[rsp]
	cdqe
	mov	rcx, QWORD PTR dst$[rsp]
	add	rax, QWORD PTR [rcx+56]
	mov	QWORD PTR dst_row$5[rsp], rax
; Line 563
	mov	eax, DWORD PTR src_y$3[rsp]
	imul	eax, DWORD PTR row_size_src$[rsp]
	cdqe
	mov	rcx, QWORD PTR src$[rsp]
	add	rax, QWORD PTR [rcx+56]
	mov	QWORD PTR src_row$6[rsp], rax
; Line 565
	mov	DWORD PTR x$2[rsp], 0
	jmp	SHORT $LN7@resize_bmp
$LN5@resize_bmp:
	mov	eax, DWORD PTR x$2[rsp]
	inc	eax
	mov	DWORD PTR x$2[rsp], eax
$LN7@resize_bmp:
	mov	eax, DWORD PTR new_width$[rsp]
	cmp	DWORD PTR x$2[rsp], eax
	jge	SHORT $LN6@resize_bmp
; Line 567
	mov	eax, DWORD PTR x$2[rsp]
	imul	eax, DWORD PTR src_width$[rsp]
	cdq
	idiv	DWORD PTR new_width$[rsp]
	mov	DWORD PTR src_x$4[rsp], eax
; Line 568
	mov	eax, DWORD PTR x$2[rsp]
	imul	eax, DWORD PTR bpp$[rsp]
	cdqe
	mov	rcx, QWORD PTR dst_row$5[rsp]
	add	rcx, rax
	mov	rax, rcx
	mov	QWORD PTR dst_px$8[rsp], rax
; Line 569
	mov	eax, DWORD PTR src_x$4[rsp]
	imul	eax, DWORD PTR bpp$[rsp]
	cdqe
	mov	rcx, QWORD PTR src_row$6[rsp]
	add	rcx, rax
	mov	rax, rcx
	mov	QWORD PTR src_px$7[rsp], rax
; Line 570
	movsxd	rax, DWORD PTR bpp$[rsp]
	mov	r8, rax
	mov	rdx, QWORD PTR src_px$7[rsp]
	mov	rcx, QWORD PTR dst_px$8[rsp]
	call	memcpy
	npad	1
; Line 571
	jmp	SHORT $LN5@resize_bmp
$LN6@resize_bmp:
; Line 572
	jmp	$LN2@resize_bmp
$LN3@resize_bmp:
; Line 574
	mov	rax, QWORD PTR dst$[rsp]
$LN1@resize_bmp:
; Line 575
	add	rsp, 136				; 00000088H
	ret	0
resize_bmp ENDP
_TEXT	ENDS
; Function compile flags: /Odsp
_TEXT	SEGMENT
msg$ = 48
free_message PROC
; File C:\Software Analysis & Debugging\hw01\src\image.c
; Line 515
$LN3:
	mov	QWORD PTR [rsp+8], rcx
	sub	rsp, 40					; 00000028H
; Line 516
	mov	rcx, QWORD PTR msg$[rsp]
	call	free
	npad	1
; Line 517
	add	rsp, 40					; 00000028H
	ret	0
free_message ENDP
_TEXT	ENDS
; Function compile flags: /Odsp
_TEXT	SEGMENT
len_bytes$ = 32
msg_len$ = 36
row$1 = 40
height$ = 44
row$2 = 48
bytesPerPixel$ = 52
dib$ = 56
col$3 = 64
c$4 = 68
col$5 = 72
c$6 = 76
bit_index$ = 80
read_bits$ = 88
width$ = 96
msg$ = 104
tv85 = 112
tv133 = 116
out_byte$7 = 120
tv256 = 124
out_byte$8 = 128
total_bits_seen$ = 136
out_bitpos$9 = 144
src_row$10 = 148
out_bitpos$11 = 152
bit_val$12 = 156
src_row$13 = 160
bit_val$14 = 164
payload_bits$ = 168
rowBytes$ = 176
data$ = 184
row_ptr$15 = 192
px$16 = 200
usable_bytes$ = 208
bits_needed$ = 216
row_ptr$17 = 224
skip_bits$ = 232
px$18 = 240
img$ = 272
use_msb$ = 280
extract_message PROC
; File C:\Software Analysis & Debugging\hw01\src\image.c
; Line 400
$LN34:
	mov	DWORD PTR [rsp+16], edx
	mov	QWORD PTR [rsp+8], rcx
	sub	rsp, 264				; 00000108H
; Line 401
	cmp	QWORD PTR img$[rsp], 0
	jne	SHORT $LN20@extract_me
; Line 402
	xor	eax, eax
	jmp	$LN1@extract_me
$LN20@extract_me:
; Line 405
	mov	rax, QWORD PTR img$[rsp]
	add	rax, 14
	mov	QWORD PTR dib$[rsp], rax
; Line 406
	mov	rax, QWORD PTR dib$[rsp]
	movzx	eax, WORD PTR [rax+14]
	cmp	eax, 24
	je	SHORT $LN21@extract_me
	mov	rax, QWORD PTR dib$[rsp]
	movzx	eax, WORD PTR [rax+14]
	cmp	eax, 32					; 00000020H
	je	SHORT $LN21@extract_me
; Line 408
	mov	ecx, 2
	call	__acrt_iob_func
	lea	rdx, OFFSET FLAT:$SG12425
	mov	rcx, rax
	call	fprintf
; Line 409
	xor	eax, eax
	jmp	$LN1@extract_me
$LN21@extract_me:
; Line 413
	mov	rax, QWORD PTR dib$[rsp]
	movzx	eax, WORD PTR [rax+14]
	cdq
	and	edx, 7
	add	eax, edx
	sar	eax, 3
	mov	DWORD PTR bytesPerPixel$[rsp], eax
; Line 414
	mov	rax, QWORD PTR dib$[rsp]
	mov	eax, DWORD PTR [rax+4]
	mov	DWORD PTR width$[rsp], eax
; Line 415
	mov	rax, QWORD PTR dib$[rsp]
	cmp	DWORD PTR [rax+8], 0
	jle	SHORT $LN28@extract_me
	mov	rax, QWORD PTR dib$[rsp]
	mov	eax, DWORD PTR [rax+8]
	mov	DWORD PTR tv85[rsp], eax
	jmp	SHORT $LN29@extract_me
$LN28@extract_me:
	mov	rax, QWORD PTR dib$[rsp]
	mov	eax, DWORD PTR [rax+8]
	neg	eax
	mov	DWORD PTR tv85[rsp], eax
$LN29@extract_me:
	mov	eax, DWORD PTR tv85[rsp]
	mov	DWORD PTR height$[rsp], eax
; Line 416
	mov	rcx, QWORD PTR dib$[rsp]
	call	row_size
	mov	QWORD PTR rowBytes$[rsp], rax
; Line 417
	movsxd	rax, DWORD PTR width$[rsp]
	movsxd	rcx, DWORD PTR height$[rsp]
	imul	rax, rcx
	movsxd	rcx, DWORD PTR bytesPerPixel$[rsp]
	imul	rax, rcx
	mov	QWORD PTR usable_bytes$[rsp], rax
; Line 419
	mov	rax, QWORD PTR img$[rsp]
	mov	rax, QWORD PTR [rax+56]
	mov	QWORD PTR data$[rsp], rax
; Line 420
	mov	QWORD PTR bit_index$[rsp], 0
; Line 423
	mov	BYTE PTR len_bytes$[rsp], 0
	mov	BYTE PTR len_bytes$[rsp+1], 0
	mov	BYTE PTR len_bytes$[rsp+2], 0
	mov	BYTE PTR len_bytes$[rsp+3], 0
; Line 424
	mov	DWORD PTR row$1[rsp], 0
	jmp	SHORT $LN4@extract_me
$LN2@extract_me:
	mov	eax, DWORD PTR row$1[rsp]
	inc	eax
	mov	DWORD PTR row$1[rsp], eax
$LN4@extract_me:
	mov	eax, DWORD PTR height$[rsp]
	cmp	DWORD PTR row$1[rsp], eax
	jge	$LN3@extract_me
	cmp	QWORD PTR bit_index$[rsp], 32		; 00000020H
	jae	$LN3@extract_me
; Line 427
	mov	rax, QWORD PTR dib$[rsp]
	cmp	DWORD PTR [rax+8], 0
	jle	SHORT $LN30@extract_me
	mov	eax, DWORD PTR height$[rsp]
	dec	eax
	sub	eax, DWORD PTR row$1[rsp]
	mov	DWORD PTR tv133[rsp], eax
	jmp	SHORT $LN31@extract_me
$LN30@extract_me:
	mov	eax, DWORD PTR row$1[rsp]
	mov	DWORD PTR tv133[rsp], eax
$LN31@extract_me:
	mov	eax, DWORD PTR tv133[rsp]
	mov	DWORD PTR src_row$10[rsp], eax
; Line 428
	movsxd	rax, DWORD PTR src_row$10[rsp]
	imul	rax, QWORD PTR rowBytes$[rsp]
	mov	rcx, QWORD PTR data$[rsp]
	add	rcx, rax
	mov	rax, rcx
	mov	QWORD PTR row_ptr$15[rsp], rax
; Line 429
	mov	DWORD PTR col$3[rsp], 0
	jmp	SHORT $LN7@extract_me
$LN5@extract_me:
	mov	eax, DWORD PTR col$3[rsp]
	inc	eax
	mov	DWORD PTR col$3[rsp], eax
$LN7@extract_me:
	mov	eax, DWORD PTR width$[rsp]
	cmp	DWORD PTR col$3[rsp], eax
	jge	$LN6@extract_me
	cmp	QWORD PTR bit_index$[rsp], 32		; 00000020H
	jae	$LN6@extract_me
; Line 431
	mov	eax, DWORD PTR col$3[rsp]
	imul	eax, DWORD PTR bytesPerPixel$[rsp]
	cdqe
	mov	rcx, QWORD PTR row_ptr$15[rsp]
	add	rcx, rax
	mov	rax, rcx
	mov	QWORD PTR px$16[rsp], rax
; Line 432
	mov	DWORD PTR c$4[rsp], 0
	jmp	SHORT $LN10@extract_me
$LN8@extract_me:
	mov	eax, DWORD PTR c$4[rsp]
	inc	eax
	mov	DWORD PTR c$4[rsp], eax
$LN10@extract_me:
	mov	eax, DWORD PTR bytesPerPixel$[rsp]
	cmp	DWORD PTR c$4[rsp], eax
	jge	$LN9@extract_me
	cmp	QWORD PTR bit_index$[rsp], 32		; 00000020H
	jae	$LN9@extract_me
; Line 434
	xor	edx, edx
	mov	rax, QWORD PTR bit_index$[rsp]
	mov	ecx, 8
	div	rcx
	mov	DWORD PTR out_byte$7[rsp], eax
; Line 435
	xor	edx, edx
	mov	rax, QWORD PTR bit_index$[rsp]
	mov	ecx, 8
	div	rcx
	mov	rax, rdx
	mov	ecx, 7
	sub	rcx, rax
	mov	rax, rcx
	mov	DWORD PTR out_bitpos$11[rsp], eax
; Line 436
	movsxd	rax, DWORD PTR c$4[rsp]
	mov	edx, DWORD PTR use_msb$[rsp]
	mov	rcx, QWORD PTR px$16[rsp]
	mov	cl, BYTE PTR [rcx+rax]
	call	get_bit_from_byte
	mov	DWORD PTR bit_val$12[rsp], eax
; Line 437
	movsxd	rax, DWORD PTR out_byte$7[rsp]
	mov	ecx, DWORD PTR out_bitpos$11[rsp]
	mov	edx, DWORD PTR bit_val$12[rsp]
	shl	edx, cl
	mov	ecx, edx
	movzx	eax, BYTE PTR len_bytes$[rsp+rax]
	or	eax, ecx
	movsxd	rcx, DWORD PTR out_byte$7[rsp]
	mov	BYTE PTR len_bytes$[rsp+rcx], al
; Line 438
	mov	rax, QWORD PTR bit_index$[rsp]
	inc	rax
	mov	QWORD PTR bit_index$[rsp], rax
; Line 439
	jmp	$LN8@extract_me
$LN9@extract_me:
; Line 440
	jmp	$LN5@extract_me
$LN6@extract_me:
; Line 441
	jmp	$LN2@extract_me
$LN3@extract_me:
; Line 443
	cmp	QWORD PTR bit_index$[rsp], 32		; 00000020H
	jae	SHORT $LN22@extract_me
; Line 445
	mov	ecx, 2
	call	__acrt_iob_func
	lea	rdx, OFFSET FLAT:$SG12427
	mov	rcx, rax
	call	fprintf
; Line 446
	xor	eax, eax
	jmp	$LN1@extract_me
$LN22@extract_me:
; Line 450
	mov	eax, 1
	imul	rax, rax, 0
	movzx	eax, BYTE PTR len_bytes$[rsp+rax]
	mov	ecx, 1
	imul	rcx, rcx, 1
	movzx	ecx, BYTE PTR len_bytes$[rsp+rcx]
	shl	ecx, 8
	or	eax, ecx
	mov	ecx, 1
	imul	rcx, rcx, 2
	movzx	ecx, BYTE PTR len_bytes$[rsp+rcx]
	shl	ecx, 16
	or	eax, ecx
	mov	ecx, 1
	imul	rcx, rcx, 3
	movzx	ecx, BYTE PTR len_bytes$[rsp+rcx]
	shl	ecx, 24
	or	eax, ecx
	mov	DWORD PTR msg_len$[rsp], eax
; Line 453
	mov	edx, DWORD PTR msg_len$[rsp]
	lea	rcx, OFFSET FLAT:$SG12428
	call	printf
; Line 456
	mov	eax, DWORD PTR msg_len$[rsp]
	shl	rax, 3
	mov	QWORD PTR bits_needed$[rsp], rax
; Line 457
	mov	rax, QWORD PTR usable_bytes$[rsp]
	sub	rax, 32					; 00000020H
	cmp	QWORD PTR bits_needed$[rsp], rax
	jbe	SHORT $LN23@extract_me
; Line 459
	mov	ecx, 2
	call	__acrt_iob_func
	mov	r8d, DWORD PTR msg_len$[rsp]
	lea	rdx, OFFSET FLAT:$SG12430
	mov	rcx, rax
	call	fprintf
; Line 460
	xor	eax, eax
	jmp	$LN1@extract_me
$LN23@extract_me:
; Line 464
	mov	eax, DWORD PTR msg_len$[rsp]
	inc	rax
	mov	rcx, rax
	call	malloc
	mov	QWORD PTR msg$[rsp], rax
; Line 465
	cmp	QWORD PTR msg$[rsp], 0
	jne	SHORT $LN24@extract_me
; Line 466
	xor	eax, eax
	jmp	$LN1@extract_me
$LN24@extract_me:
; Line 467
	mov	eax, DWORD PTR msg_len$[rsp]
	inc	eax
	mov	eax, eax
	mov	r8d, eax
	xor	edx, edx
	mov	rcx, QWORD PTR msg$[rsp]
	call	memset
; Line 470
	mov	QWORD PTR read_bits$[rsp], 0
; Line 474
	mov	QWORD PTR read_bits$[rsp], 0
; Line 475
	mov	eax, DWORD PTR msg_len$[rsp]
	shl	rax, 3
	mov	QWORD PTR payload_bits$[rsp], rax
; Line 478
	mov	QWORD PTR skip_bits$[rsp], 32		; 00000020H
; Line 479
	mov	QWORD PTR total_bits_seen$[rsp], 0
; Line 482
	mov	DWORD PTR row$2[rsp], 0
	jmp	SHORT $LN13@extract_me
$LN11@extract_me:
	mov	eax, DWORD PTR row$2[rsp]
	inc	eax
	mov	DWORD PTR row$2[rsp], eax
$LN13@extract_me:
	mov	eax, DWORD PTR height$[rsp]
	cmp	DWORD PTR row$2[rsp], eax
	jge	$LN12@extract_me
	mov	rax, QWORD PTR payload_bits$[rsp]
	cmp	QWORD PTR read_bits$[rsp], rax
	jae	$LN12@extract_me
; Line 484
	mov	rax, QWORD PTR dib$[rsp]
	cmp	DWORD PTR [rax+8], 0
	jle	SHORT $LN32@extract_me
	mov	eax, DWORD PTR height$[rsp]
	dec	eax
	sub	eax, DWORD PTR row$2[rsp]
	mov	DWORD PTR tv256[rsp], eax
	jmp	SHORT $LN33@extract_me
$LN32@extract_me:
	mov	eax, DWORD PTR row$2[rsp]
	mov	DWORD PTR tv256[rsp], eax
$LN33@extract_me:
	mov	eax, DWORD PTR tv256[rsp]
	mov	DWORD PTR src_row$13[rsp], eax
; Line 485
	movsxd	rax, DWORD PTR src_row$13[rsp]
	imul	rax, QWORD PTR rowBytes$[rsp]
	mov	rcx, QWORD PTR data$[rsp]
	add	rcx, rax
	mov	rax, rcx
	mov	QWORD PTR row_ptr$17[rsp], rax
; Line 486
	mov	DWORD PTR col$5[rsp], 0
	jmp	SHORT $LN16@extract_me
$LN14@extract_me:
	mov	eax, DWORD PTR col$5[rsp]
	inc	eax
	mov	DWORD PTR col$5[rsp], eax
$LN16@extract_me:
	mov	eax, DWORD PTR width$[rsp]
	cmp	DWORD PTR col$5[rsp], eax
	jge	$LN15@extract_me
	mov	rax, QWORD PTR payload_bits$[rsp]
	cmp	QWORD PTR read_bits$[rsp], rax
	jae	$LN15@extract_me
; Line 488
	mov	eax, DWORD PTR col$5[rsp]
	imul	eax, DWORD PTR bytesPerPixel$[rsp]
	cdqe
	mov	rcx, QWORD PTR row_ptr$17[rsp]
	add	rcx, rax
	mov	rax, rcx
	mov	QWORD PTR px$18[rsp], rax
; Line 489
	mov	DWORD PTR c$6[rsp], 0
	jmp	SHORT $LN19@extract_me
$LN17@extract_me:
	mov	eax, DWORD PTR c$6[rsp]
	inc	eax
	mov	DWORD PTR c$6[rsp], eax
$LN19@extract_me:
	mov	eax, DWORD PTR bytesPerPixel$[rsp]
	cmp	DWORD PTR c$6[rsp], eax
	jge	$LN18@extract_me
	mov	rax, QWORD PTR payload_bits$[rsp]
	cmp	QWORD PTR read_bits$[rsp], rax
	jae	$LN18@extract_me
; Line 491
	mov	rax, QWORD PTR skip_bits$[rsp]
	cmp	QWORD PTR total_bits_seen$[rsp], rax
	jae	SHORT $LN25@extract_me
; Line 493
	mov	rax, QWORD PTR total_bits_seen$[rsp]
	inc	rax
	mov	QWORD PTR total_bits_seen$[rsp], rax
; Line 494
	jmp	SHORT $LN17@extract_me
$LN25@extract_me:
; Line 496
	xor	edx, edx
	mov	rax, QWORD PTR read_bits$[rsp]
	mov	ecx, 8
	div	rcx
	mov	DWORD PTR out_byte$8[rsp], eax
; Line 497
	xor	edx, edx
	mov	rax, QWORD PTR read_bits$[rsp]
	mov	ecx, 8
	div	rcx
	mov	rax, rdx
	mov	ecx, 7
	sub	rcx, rax
	mov	rax, rcx
	mov	DWORD PTR out_bitpos$9[rsp], eax
; Line 498
	movsxd	rax, DWORD PTR c$6[rsp]
	mov	edx, DWORD PTR use_msb$[rsp]
	mov	rcx, QWORD PTR px$18[rsp]
	mov	cl, BYTE PTR [rcx+rax]
	call	get_bit_from_byte
	mov	DWORD PTR bit_val$14[rsp], eax
; Line 499
	cmp	DWORD PTR bit_val$14[rsp], 0
	je	SHORT $LN26@extract_me
; Line 500
	movsxd	rax, DWORD PTR out_byte$8[rsp]
	mov	ecx, DWORD PTR out_bitpos$9[rsp]
	mov	edx, 1
	shl	edx, cl
	mov	ecx, edx
	mov	rdx, QWORD PTR msg$[rsp]
	movsx	eax, BYTE PTR [rdx+rax]
	or	eax, ecx
	movsxd	rcx, DWORD PTR out_byte$8[rsp]
	mov	rdx, QWORD PTR msg$[rsp]
	mov	BYTE PTR [rdx+rcx], al
$LN26@extract_me:
; Line 501
	mov	rax, QWORD PTR read_bits$[rsp]
	inc	rax
	mov	QWORD PTR read_bits$[rsp], rax
; Line 502
	mov	rax, QWORD PTR total_bits_seen$[rsp]
	inc	rax
	mov	QWORD PTR total_bits_seen$[rsp], rax
; Line 503
	jmp	$LN17@extract_me
$LN18@extract_me:
; Line 504
	jmp	$LN14@extract_me
$LN15@extract_me:
; Line 505
	jmp	$LN11@extract_me
$LN12@extract_me:
; Line 508
	mov	eax, DWORD PTR msg_len$[rsp]
	mov	rcx, QWORD PTR msg$[rsp]
	mov	BYTE PTR [rcx+rax], 0
; Line 510
	mov	rax, QWORD PTR msg$[rsp]
$LN1@extract_me:
; Line 511
	add	rsp, 264				; 00000108H
	ret	0
extract_message ENDP
_TEXT	ENDS
; Function compile flags: /Odsp
_TEXT	SEGMENT
msg_len$ = 32
row$1 = 36
col$2 = 40
c$3 = 44
dib$ = 48
bit_index$ = 56
payload$ = 64
height$ = 72
bytesPerPixel$ = 76
tv86 = 80
tv179 = 84
width$ = 88
total_bits$ = 96
src_row$4 = 104
bit_in_byte$5 = 108
bit_val$6 = 112
bits_needed$ = 120
usable_bytes$ = 128
rowBytes$ = 136
data$ = 144
row_ptr$7 = 152
byte_idx$8 = 160
px$9 = 168
img$ = 192
message$ = 200
use_msb$ = 208
embed_message PROC
; File C:\Software Analysis & Debugging\hw01\src\image.c
; Line 312
$LN22:
	mov	DWORD PTR [rsp+24], r8d
	mov	QWORD PTR [rsp+16], rdx
	mov	QWORD PTR [rsp+8], rcx
	sub	rsp, 184				; 000000b8H
; Line 313
	cmp	QWORD PTR img$[rsp], 0
	je	SHORT $LN12@embed_mess
	cmp	QWORD PTR message$[rsp], 0
	jne	SHORT $LN11@embed_mess
$LN12@embed_mess:
; Line 314
	mov	eax, -1
	jmp	$LN1@embed_mess
$LN11@embed_mess:
; Line 316
	mov	rax, QWORD PTR img$[rsp]
	add	rax, 14
	mov	QWORD PTR dib$[rsp], rax
; Line 318
	mov	rax, QWORD PTR dib$[rsp]
	movzx	eax, WORD PTR [rax+14]
	cmp	eax, 24
	je	SHORT $LN13@embed_mess
	mov	rax, QWORD PTR dib$[rsp]
	movzx	eax, WORD PTR [rax+14]
	cmp	eax, 32					; 00000020H
	je	SHORT $LN13@embed_mess
; Line 320
	mov	ecx, 2
	call	__acrt_iob_func
	lea	rdx, OFFSET FLAT:$SG12344
	mov	rcx, rax
	call	fprintf
; Line 321
	mov	eax, -1
	jmp	$LN1@embed_mess
$LN13@embed_mess:
; Line 324
	mov	rax, QWORD PTR dib$[rsp]
	movzx	eax, WORD PTR [rax+14]
	cdq
	and	edx, 7
	add	eax, edx
	sar	eax, 3
	mov	DWORD PTR bytesPerPixel$[rsp], eax
; Line 325
	mov	rax, QWORD PTR dib$[rsp]
	mov	eax, DWORD PTR [rax+4]
	mov	DWORD PTR width$[rsp], eax
; Line 326
	mov	rax, QWORD PTR dib$[rsp]
	cmp	DWORD PTR [rax+8], 0
	jle	SHORT $LN18@embed_mess
	mov	rax, QWORD PTR dib$[rsp]
	mov	eax, DWORD PTR [rax+8]
	mov	DWORD PTR tv86[rsp], eax
	jmp	SHORT $LN19@embed_mess
$LN18@embed_mess:
	mov	rax, QWORD PTR dib$[rsp]
	mov	eax, DWORD PTR [rax+8]
	neg	eax
	mov	DWORD PTR tv86[rsp], eax
$LN19@embed_mess:
	mov	eax, DWORD PTR tv86[rsp]
	mov	DWORD PTR height$[rsp], eax
; Line 327
	mov	rcx, QWORD PTR dib$[rsp]
	call	row_size
	mov	QWORD PTR rowBytes$[rsp], rax
; Line 334
	mov	rcx, QWORD PTR message$[rsp]
	call	strlen
	mov	DWORD PTR msg_len$[rsp], eax
; Line 336
	mov	eax, DWORD PTR msg_len$[rsp]
	lea	rax, QWORD PTR [rax*8+32]
	mov	QWORD PTR bits_needed$[rsp], rax
; Line 339
	movsxd	rax, DWORD PTR width$[rsp]
	movsxd	rcx, DWORD PTR height$[rsp]
	imul	rax, rcx
	movsxd	rcx, DWORD PTR bytesPerPixel$[rsp]
	imul	rax, rcx
	mov	QWORD PTR usable_bytes$[rsp], rax
; Line 340
	mov	rax, QWORD PTR usable_bytes$[rsp]
	cmp	QWORD PTR bits_needed$[rsp], rax
	jbe	SHORT $LN14@embed_mess
; Line 342
	mov	ecx, 2
	call	__acrt_iob_func
	mov	r9, QWORD PTR usable_bytes$[rsp]
	mov	r8, QWORD PTR bits_needed$[rsp]
	lea	rdx, OFFSET FLAT:$SG12346
	mov	rcx, rax
	call	fprintf
; Line 344
	mov	eax, -1
	jmp	$LN1@embed_mess
$LN14@embed_mess:
; Line 348
	mov	eax, DWORD PTR msg_len$[rsp]
	add	eax, 4
	mov	eax, eax
	mov	ecx, eax
	call	malloc
	mov	QWORD PTR payload$[rsp], rax
; Line 349
	cmp	QWORD PTR payload$[rsp], 0
	jne	SHORT $LN15@embed_mess
; Line 350
	mov	eax, -1
	jmp	$LN1@embed_mess
$LN15@embed_mess:
; Line 351
	mov	eax, DWORD PTR msg_len$[rsp]
	and	eax, 255				; 000000ffH
	mov	ecx, 1
	imul	rcx, rcx, 0
	mov	rdx, QWORD PTR payload$[rsp]
	mov	BYTE PTR [rdx+rcx], al
; Line 352
	mov	eax, DWORD PTR msg_len$[rsp]
	shr	eax, 8
	and	eax, 255				; 000000ffH
	mov	ecx, 1
	imul	rcx, rcx, 1
	mov	rdx, QWORD PTR payload$[rsp]
	mov	BYTE PTR [rdx+rcx], al
; Line 353
	mov	eax, DWORD PTR msg_len$[rsp]
	shr	eax, 16
	and	eax, 255				; 000000ffH
	mov	ecx, 1
	imul	rcx, rcx, 2
	mov	rdx, QWORD PTR payload$[rsp]
	mov	BYTE PTR [rdx+rcx], al
; Line 354
	mov	eax, DWORD PTR msg_len$[rsp]
	shr	eax, 24
	and	eax, 255				; 000000ffH
	mov	ecx, 1
	imul	rcx, rcx, 3
	mov	rdx, QWORD PTR payload$[rsp]
	mov	BYTE PTR [rdx+rcx], al
; Line 355
	mov	eax, DWORD PTR msg_len$[rsp]
	mov	rcx, QWORD PTR payload$[rsp]
	add	rcx, 4
	mov	r8d, eax
	mov	rdx, QWORD PTR message$[rsp]
	call	memcpy
; Line 356
	mov	rax, QWORD PTR bits_needed$[rsp]
	mov	QWORD PTR total_bits$[rsp], rax
; Line 359
	mov	rax, QWORD PTR img$[rsp]
	mov	rax, QWORD PTR [rax+56]
	mov	QWORD PTR data$[rsp], rax
; Line 360
	mov	QWORD PTR bit_index$[rsp], 0
; Line 362
	mov	DWORD PTR row$1[rsp], 0
	jmp	SHORT $LN4@embed_mess
$LN2@embed_mess:
	mov	eax, DWORD PTR row$1[rsp]
	inc	eax
	mov	DWORD PTR row$1[rsp], eax
$LN4@embed_mess:
	mov	eax, DWORD PTR height$[rsp]
	cmp	DWORD PTR row$1[rsp], eax
	jge	$LN3@embed_mess
	mov	rax, QWORD PTR total_bits$[rsp]
	cmp	QWORD PTR bit_index$[rsp], rax
	jae	$LN3@embed_mess
; Line 365
	mov	rax, QWORD PTR dib$[rsp]
	cmp	DWORD PTR [rax+8], 0
	jle	SHORT $LN20@embed_mess
	mov	eax, DWORD PTR height$[rsp]
	dec	eax
	sub	eax, DWORD PTR row$1[rsp]
	mov	DWORD PTR tv179[rsp], eax
	jmp	SHORT $LN21@embed_mess
$LN20@embed_mess:
	mov	eax, DWORD PTR row$1[rsp]
	mov	DWORD PTR tv179[rsp], eax
$LN21@embed_mess:
	mov	eax, DWORD PTR tv179[rsp]
	mov	DWORD PTR src_row$4[rsp], eax
; Line 366
	movsxd	rax, DWORD PTR src_row$4[rsp]
	imul	rax, QWORD PTR rowBytes$[rsp]
	mov	rcx, QWORD PTR data$[rsp]
	add	rcx, rax
	mov	rax, rcx
	mov	QWORD PTR row_ptr$7[rsp], rax
; Line 369
	mov	DWORD PTR col$2[rsp], 0
	jmp	SHORT $LN7@embed_mess
$LN5@embed_mess:
	mov	eax, DWORD PTR col$2[rsp]
	inc	eax
	mov	DWORD PTR col$2[rsp], eax
$LN7@embed_mess:
	mov	eax, DWORD PTR width$[rsp]
	cmp	DWORD PTR col$2[rsp], eax
	jge	$LN6@embed_mess
	mov	rax, QWORD PTR total_bits$[rsp]
	cmp	QWORD PTR bit_index$[rsp], rax
	jae	$LN6@embed_mess
; Line 371
	mov	eax, DWORD PTR col$2[rsp]
	imul	eax, DWORD PTR bytesPerPixel$[rsp]
	cdqe
	mov	rcx, QWORD PTR row_ptr$7[rsp]
	add	rcx, rax
	mov	rax, rcx
	mov	QWORD PTR px$9[rsp], rax
; Line 372
	mov	DWORD PTR c$3[rsp], 0
	jmp	SHORT $LN10@embed_mess
$LN8@embed_mess:
	mov	eax, DWORD PTR c$3[rsp]
	inc	eax
	mov	DWORD PTR c$3[rsp], eax
$LN10@embed_mess:
	mov	eax, DWORD PTR bytesPerPixel$[rsp]
	cmp	DWORD PTR c$3[rsp], eax
	jge	$LN9@embed_mess
	mov	rax, QWORD PTR total_bits$[rsp]
	cmp	QWORD PTR bit_index$[rsp], rax
	jae	$LN9@embed_mess
; Line 374
	xor	edx, edx
	mov	rax, QWORD PTR bit_index$[rsp]
	mov	ecx, 8
	div	rcx
	mov	QWORD PTR byte_idx$8[rsp], rax
; Line 375
	xor	edx, edx
	mov	rax, QWORD PTR bit_index$[rsp]
	mov	ecx, 8
	div	rcx
	mov	rax, rdx
	mov	ecx, 7
	sub	rcx, rax
	mov	rax, rcx
	mov	DWORD PTR bit_in_byte$5[rsp], eax
; Line 376
	mov	rax, QWORD PTR byte_idx$8[rsp]
	mov	rcx, QWORD PTR payload$[rsp]
	add	rcx, rax
	mov	rax, rcx
	movzx	eax, BYTE PTR [rax]
	mov	ecx, DWORD PTR bit_in_byte$5[rsp]
	sar	eax, cl
	and	eax, 1
	mov	DWORD PTR bit_val$6[rsp], eax
; Line 377
	movsxd	rax, DWORD PTR c$3[rsp]
	mov	rcx, QWORD PTR px$9[rsp]
	add	rcx, rax
	mov	rax, rcx
	mov	r8d, DWORD PTR use_msb$[rsp]
	mov	edx, DWORD PTR bit_val$6[rsp]
	mov	rcx, rax
	call	set_bit_in_byte
; Line 378
	mov	rax, QWORD PTR bit_index$[rsp]
	inc	rax
	mov	QWORD PTR bit_index$[rsp], rax
; Line 379
	jmp	$LN8@embed_mess
$LN9@embed_mess:
; Line 380
	jmp	$LN5@embed_mess
$LN6@embed_mess:
; Line 382
	jmp	$LN2@embed_mess
$LN3@embed_mess:
; Line 384
	mov	rcx, QWORD PTR payload$[rsp]
	call	free
; Line 386
	mov	rax, QWORD PTR total_bits$[rsp]
	cmp	QWORD PTR bit_index$[rsp], rax
	je	SHORT $LN16@embed_mess
; Line 388
	mov	ecx, 2
	call	__acrt_iob_func
	mov	r9, QWORD PTR total_bits$[rsp]
	mov	r8, QWORD PTR bit_index$[rsp]
	lea	rdx, OFFSET FLAT:$SG12349
	mov	rcx, rax
	call	fprintf
; Line 390
	mov	eax, -1
	jmp	SHORT $LN1@embed_mess
$LN16@embed_mess:
; Line 393
	xor	eax, eax
$LN1@embed_mess:
; Line 394
	add	rsp, 184				; 000000b8H
	ret	0
embed_message ENDP
_TEXT	ENDS
; Function compile flags: /Odsp
_TEXT	SEGMENT
dst$ = 32
y$1 = 40
x$2 = 44
newH$ = 48
newW$ = 52
oldW$ = 56
newRowPadded$ = 60
oldH$ = 64
srcY$3 = 68
oldRowPadded$ = 72
srcX$4 = 76
dstPixel$5 = 80
srcPixel$6 = 88
src$ = 128
factor$ = 136
scale_bmp PROC
; File C:\Software Analysis & Debugging\hw01\src\image.c
; Line 204
$LN13:
	movsd	QWORD PTR [rsp+16], xmm1
	mov	QWORD PTR [rsp+8], rcx
	push	rsi
	push	rdi
	sub	rsp, 104				; 00000068H
; Line 205
	cmp	QWORD PTR src$[rsp], 0
	je	SHORT $LN9@scale_bmp
	mov	rax, QWORD PTR src$[rsp]
	cmp	QWORD PTR [rax+56], 0
	je	SHORT $LN9@scale_bmp
	xorps	xmm0, xmm0
	comisd	xmm0, QWORD PTR factor$[rsp]
	jb	SHORT $LN8@scale_bmp
$LN9@scale_bmp:
; Line 206
	xor	eax, eax
	jmp	$LN1@scale_bmp
$LN8@scale_bmp:
; Line 209
	mov	rax, QWORD PTR src$[rsp]
	mov	eax, DWORD PTR [rax+18]
	mov	DWORD PTR oldW$[rsp], eax
; Line 210
	mov	rax, QWORD PTR src$[rsp]
	mov	eax, DWORD PTR [rax+22]
	mov	DWORD PTR oldH$[rsp], eax
; Line 211
	imul	eax, DWORD PTR oldW$[rsp], 3
	add	eax, 3
	and	eax, -4
	mov	DWORD PTR oldRowPadded$[rsp], eax
; Line 214
	cvtsi2sd xmm0, DWORD PTR oldW$[rsp]
	mulsd	xmm0, QWORD PTR factor$[rsp]
	cvttsd2si eax, xmm0
	mov	DWORD PTR newW$[rsp], eax
; Line 215
	cvtsi2sd xmm0, DWORD PTR oldH$[rsp]
	mulsd	xmm0, QWORD PTR factor$[rsp]
	cvttsd2si eax, xmm0
	mov	DWORD PTR newH$[rsp], eax
; Line 216
	imul	eax, DWORD PTR newW$[rsp], 3
	add	eax, 3
	and	eax, -4
	mov	DWORD PTR newRowPadded$[rsp], eax
; Line 218
	mov	ecx, 64					; 00000040H
	call	malloc
	mov	QWORD PTR dst$[rsp], rax
; Line 219
	cmp	QWORD PTR dst$[rsp], 0
	jne	SHORT $LN10@scale_bmp
; Line 220
	xor	eax, eax
	jmp	$LN1@scale_bmp
$LN10@scale_bmp:
; Line 223
	mov	rdi, QWORD PTR dst$[rsp]
	mov	rsi, QWORD PTR src$[rsp]
	mov	ecx, 14
	rep movsb
; Line 224
	mov	rax, QWORD PTR dst$[rsp]
	mov	rcx, QWORD PTR src$[rsp]
	lea	rdi, QWORD PTR [rax+14]
	lea	rsi, QWORD PTR [rcx+14]
	mov	ecx, 40					; 00000028H
	rep movsb
; Line 227
	mov	rax, QWORD PTR dst$[rsp]
	mov	ecx, DWORD PTR newW$[rsp]
	mov	DWORD PTR [rax+18], ecx
; Line 228
	mov	rax, QWORD PTR dst$[rsp]
	mov	ecx, DWORD PTR newH$[rsp]
	mov	DWORD PTR [rax+22], ecx
; Line 229
	mov	eax, DWORD PTR newRowPadded$[rsp]
	imul	eax, DWORD PTR newH$[rsp]
	mov	rcx, QWORD PTR dst$[rsp]
	mov	DWORD PTR [rcx+34], eax
; Line 230
	mov	rax, QWORD PTR dst$[rsp]
	mov	eax, DWORD PTR [rax+10]
	mov	rcx, QWORD PTR dst$[rsp]
	add	eax, DWORD PTR [rcx+34]
	mov	rcx, QWORD PTR dst$[rsp]
	mov	DWORD PTR [rcx+2], eax
; Line 232
	mov	rax, QWORD PTR dst$[rsp]
	mov	eax, DWORD PTR [rax+34]
	mov	ecx, eax
	call	malloc
	mov	rcx, QWORD PTR dst$[rsp]
	mov	QWORD PTR [rcx+56], rax
; Line 233
	mov	rax, QWORD PTR dst$[rsp]
	cmp	QWORD PTR [rax+56], 0
	jne	SHORT $LN11@scale_bmp
; Line 235
	mov	rcx, QWORD PTR dst$[rsp]
	call	free
; Line 236
	xor	eax, eax
	jmp	$LN1@scale_bmp
$LN11@scale_bmp:
; Line 240
	mov	rax, QWORD PTR dst$[rsp]
	mov	eax, DWORD PTR [rax+34]
	mov	r8d, eax
	xor	edx, edx
	mov	rax, QWORD PTR dst$[rsp]
	mov	rcx, QWORD PTR [rax+56]
	call	memset
	npad	1
; Line 243
	mov	DWORD PTR y$1[rsp], 0
	jmp	SHORT $LN4@scale_bmp
$LN2@scale_bmp:
	mov	eax, DWORD PTR y$1[rsp]
	inc	eax
	mov	DWORD PTR y$1[rsp], eax
$LN4@scale_bmp:
	mov	eax, DWORD PTR newH$[rsp]
	cmp	DWORD PTR y$1[rsp], eax
	jge	$LN3@scale_bmp
; Line 245
	mov	DWORD PTR x$2[rsp], 0
	jmp	SHORT $LN7@scale_bmp
$LN5@scale_bmp:
	mov	eax, DWORD PTR x$2[rsp]
	inc	eax
	mov	DWORD PTR x$2[rsp], eax
$LN7@scale_bmp:
	mov	eax, DWORD PTR newW$[rsp]
	cmp	DWORD PTR x$2[rsp], eax
	jge	$LN6@scale_bmp
; Line 247
	cvtsi2sd xmm0, DWORD PTR x$2[rsp]
	divsd	xmm0, QWORD PTR factor$[rsp]
	cvttsd2si eax, xmm0
	mov	DWORD PTR srcX$4[rsp], eax
; Line 248
	cvtsi2sd xmm0, DWORD PTR y$1[rsp]
	divsd	xmm0, QWORD PTR factor$[rsp]
	cvttsd2si eax, xmm0
	mov	DWORD PTR srcY$3[rsp], eax
; Line 250
	mov	eax, DWORD PTR y$1[rsp]
	imul	eax, DWORD PTR newRowPadded$[rsp]
	cdqe
	mov	rcx, QWORD PTR dst$[rsp]
	mov	rcx, QWORD PTR [rcx+56]
	add	rcx, rax
	mov	rax, rcx
	imul	ecx, DWORD PTR x$2[rsp], 3
	movsxd	rcx, ecx
	add	rax, rcx
	mov	QWORD PTR dstPixel$5[rsp], rax
; Line 251
	mov	eax, DWORD PTR srcY$3[rsp]
	imul	eax, DWORD PTR oldRowPadded$[rsp]
	cdqe
	mov	rcx, QWORD PTR src$[rsp]
	mov	rcx, QWORD PTR [rcx+56]
	add	rcx, rax
	mov	rax, rcx
	imul	ecx, DWORD PTR srcX$4[rsp], 3
	movsxd	rcx, ecx
	add	rax, rcx
	mov	QWORD PTR srcPixel$6[rsp], rax
; Line 253
	mov	eax, 1
	imul	rax, rax, 0
	mov	ecx, 1
	imul	rcx, rcx, 0
	mov	rdx, QWORD PTR dstPixel$5[rsp]
	mov	rdi, QWORD PTR srcPixel$6[rsp]
	mov	al, BYTE PTR [rdi+rax]
	mov	BYTE PTR [rdx+rcx], al
; Line 254
	mov	eax, 1
	imul	rax, rax, 1
	mov	ecx, 1
	imul	rcx, rcx, 1
	mov	rdx, QWORD PTR dstPixel$5[rsp]
	mov	rdi, QWORD PTR srcPixel$6[rsp]
	mov	al, BYTE PTR [rdi+rax]
	mov	BYTE PTR [rdx+rcx], al
; Line 255
	mov	eax, 1
	imul	rax, rax, 2
	mov	ecx, 1
	imul	rcx, rcx, 2
	mov	rdx, QWORD PTR dstPixel$5[rsp]
	mov	rdi, QWORD PTR srcPixel$6[rsp]
	mov	al, BYTE PTR [rdi+rax]
	mov	BYTE PTR [rdx+rcx], al
; Line 256
	jmp	$LN5@scale_bmp
$LN6@scale_bmp:
; Line 257
	jmp	$LN2@scale_bmp
$LN3@scale_bmp:
; Line 259
	mov	rax, QWORD PTR dst$[rsp]
$LN1@scale_bmp:
; Line 260
	add	rsp, 104				; 00000068H
	pop	rdi
	pop	rsi
	ret	0
scale_bmp ENDP
_TEXT	ENDS
; Function compile flags: /Odsp
_TEXT	SEGMENT
y$1 = 32
x$2 = 36
dst$ = 40
width$ = 48
height$ = 52
srcYi$3 = 56
srcXi$4 = 60
row_padded$ = 64
dst_row_padded$ = 68
cx$ = 72
cy$ = 80
dstPixel$5 = 88
srcPixel$6 = 96
angle$ = 104
sinA$ = 112
cosA$ = 120
srcX$7 = 128
srcY$8 = 136
src$ = 176
angle_degrees$ = 184
rotate_bmp PROC
; File C:\Software Analysis & Debugging\hw01\src\image.c
; Line 129
$LN16:
	movsd	QWORD PTR [rsp+16], xmm1
	mov	QWORD PTR [rsp+8], rcx
	push	rsi
	push	rdi
	sub	rsp, 152				; 00000098H
; Line 130
	cmp	QWORD PTR src$[rsp], 0
	je	SHORT $LN9@rotate_bmp
	mov	rax, QWORD PTR src$[rsp]
	cmp	QWORD PTR [rax+56], 0
	jne	SHORT $LN8@rotate_bmp
$LN9@rotate_bmp:
; Line 131
	xor	eax, eax
	jmp	$LN1@rotate_bmp
$LN8@rotate_bmp:
; Line 134
	mov	rax, QWORD PTR src$[rsp]
	movzx	eax, WORD PTR [rax+28]
	cmp	eax, 24
	jne	SHORT $LN11@rotate_bmp
	mov	rax, QWORD PTR src$[rsp]
	cmp	DWORD PTR [rax+30], 0
	je	SHORT $LN10@rotate_bmp
$LN11@rotate_bmp:
; Line 136
	lea	rcx, OFFSET FLAT:$SG12229
	call	printf
; Line 137
	xor	eax, eax
	jmp	$LN1@rotate_bmp
$LN10@rotate_bmp:
; Line 141
	mov	rax, QWORD PTR src$[rsp]
	mov	eax, DWORD PTR [rax+18]
	mov	DWORD PTR width$[rsp], eax
; Line 142
	mov	rax, QWORD PTR src$[rsp]
	mov	eax, DWORD PTR [rax+22]
	mov	DWORD PTR height$[rsp], eax
; Line 143
	imul	eax, DWORD PTR width$[rsp], 3
	add	eax, 3
	and	eax, -4
	mov	DWORD PTR row_padded$[rsp], eax
; Line 146
	mov	ecx, 64					; 00000040H
	call	malloc
	mov	QWORD PTR dst$[rsp], rax
; Line 147
	cmp	QWORD PTR dst$[rsp], 0
	jne	SHORT $LN12@rotate_bmp
; Line 148
	xor	eax, eax
	jmp	$LN1@rotate_bmp
$LN12@rotate_bmp:
; Line 150
	mov	rdi, QWORD PTR dst$[rsp]
	mov	rsi, QWORD PTR src$[rsp]
	mov	ecx, 14
	rep movsb
; Line 151
	mov	rax, QWORD PTR dst$[rsp]
	mov	rcx, QWORD PTR src$[rsp]
	lea	rdi, QWORD PTR [rax+14]
	lea	rsi, QWORD PTR [rcx+14]
	mov	ecx, 40					; 00000028H
	rep movsb
; Line 153
	mov	rax, QWORD PTR src$[rsp]
	mov	eax, DWORD PTR [rax+34]
	mov	ecx, eax
	call	malloc
	mov	rcx, QWORD PTR dst$[rsp]
	mov	QWORD PTR [rcx+56], rax
; Line 154
	mov	rax, QWORD PTR dst$[rsp]
	cmp	QWORD PTR [rax+56], 0
	jne	SHORT $LN13@rotate_bmp
; Line 156
	mov	rcx, QWORD PTR dst$[rsp]
	call	free
; Line 157
	xor	eax, eax
	jmp	$LN1@rotate_bmp
$LN13@rotate_bmp:
; Line 161
	movsd	xmm0, QWORD PTR angle_degrees$[rsp]
	mulsd	xmm0, QWORD PTR __real@400921fb54442d18
	divsd	xmm0, QWORD PTR __real@4066800000000000
	movsd	QWORD PTR angle$[rsp], xmm0
; Line 162
	movsd	xmm0, QWORD PTR angle$[rsp]
	call	cos
	movsd	QWORD PTR cosA$[rsp], xmm0
; Line 163
	movsd	xmm0, QWORD PTR angle$[rsp]
	call	sin
	movsd	QWORD PTR sinA$[rsp], xmm0
; Line 165
	cvtsi2sd xmm0, DWORD PTR width$[rsp]
	divsd	xmm0, QWORD PTR __real@4000000000000000
	movsd	QWORD PTR cx$[rsp], xmm0
; Line 166
	cvtsi2sd xmm0, DWORD PTR height$[rsp]
	divsd	xmm0, QWORD PTR __real@4000000000000000
	movsd	QWORD PTR cy$[rsp], xmm0
; Line 168
	mov	eax, DWORD PTR row_padded$[rsp]
	mov	DWORD PTR dst_row_padded$[rsp], eax
; Line 171
	mov	rax, QWORD PTR dst$[rsp]
	mov	eax, DWORD PTR [rax+34]
	mov	r8d, eax
	xor	edx, edx
	mov	rax, QWORD PTR dst$[rsp]
	mov	rcx, QWORD PTR [rax+56]
	call	memset
	npad	1
; Line 174
	mov	DWORD PTR y$1[rsp], 0
	jmp	SHORT $LN4@rotate_bmp
$LN2@rotate_bmp:
	mov	eax, DWORD PTR y$1[rsp]
	inc	eax
	mov	DWORD PTR y$1[rsp], eax
$LN4@rotate_bmp:
	mov	eax, DWORD PTR height$[rsp]
	cmp	DWORD PTR y$1[rsp], eax
	jge	$LN3@rotate_bmp
; Line 176
	mov	DWORD PTR x$2[rsp], 0
	jmp	SHORT $LN7@rotate_bmp
$LN5@rotate_bmp:
	mov	eax, DWORD PTR x$2[rsp]
	inc	eax
	mov	DWORD PTR x$2[rsp], eax
$LN7@rotate_bmp:
	mov	eax, DWORD PTR width$[rsp]
	cmp	DWORD PTR x$2[rsp], eax
	jge	$LN6@rotate_bmp
; Line 179
	cvtsi2sd xmm0, DWORD PTR x$2[rsp]
	subsd	xmm0, QWORD PTR cx$[rsp]
	movsd	xmm1, QWORD PTR cosA$[rsp]
	mulsd	xmm1, xmm0
	movaps	xmm0, xmm1
	cvtsi2sd xmm1, DWORD PTR y$1[rsp]
	subsd	xmm1, QWORD PTR cy$[rsp]
	movsd	xmm2, QWORD PTR sinA$[rsp]
	mulsd	xmm2, xmm1
	movaps	xmm1, xmm2
	addsd	xmm0, xmm1
	addsd	xmm0, QWORD PTR cx$[rsp]
	movsd	QWORD PTR srcX$7[rsp], xmm0
; Line 180
	movsd	xmm0, QWORD PTR sinA$[rsp]
	xorps	xmm0, QWORD PTR __xmm@80000000000000008000000000000000
	cvtsi2sd xmm1, DWORD PTR x$2[rsp]
	subsd	xmm1, QWORD PTR cx$[rsp]
	mulsd	xmm0, xmm1
	cvtsi2sd xmm1, DWORD PTR y$1[rsp]
	subsd	xmm1, QWORD PTR cy$[rsp]
	movsd	xmm2, QWORD PTR cosA$[rsp]
	mulsd	xmm2, xmm1
	movaps	xmm1, xmm2
	addsd	xmm0, xmm1
	addsd	xmm0, QWORD PTR cy$[rsp]
	movsd	QWORD PTR srcY$8[rsp], xmm0
; Line 182
	movsd	xmm0, QWORD PTR srcX$7[rsp]
	call	round
	cvttsd2si eax, xmm0
	mov	DWORD PTR srcXi$4[rsp], eax
; Line 183
	movsd	xmm0, QWORD PTR srcY$8[rsp]
	call	round
	cvttsd2si eax, xmm0
	mov	DWORD PTR srcYi$3[rsp], eax
; Line 185
	cmp	DWORD PTR srcXi$4[rsp], 0
	jl	$LN14@rotate_bmp
	mov	eax, DWORD PTR width$[rsp]
	cmp	DWORD PTR srcXi$4[rsp], eax
	jge	$LN14@rotate_bmp
	cmp	DWORD PTR srcYi$3[rsp], 0
	jl	$LN14@rotate_bmp
	mov	eax, DWORD PTR height$[rsp]
	cmp	DWORD PTR srcYi$3[rsp], eax
	jge	$LN14@rotate_bmp
; Line 187
	mov	eax, DWORD PTR y$1[rsp]
	imul	eax, DWORD PTR dst_row_padded$[rsp]
	cdqe
	mov	rcx, QWORD PTR dst$[rsp]
	mov	rcx, QWORD PTR [rcx+56]
	add	rcx, rax
	mov	rax, rcx
	imul	ecx, DWORD PTR x$2[rsp], 3
	movsxd	rcx, ecx
	add	rax, rcx
	mov	QWORD PTR dstPixel$5[rsp], rax
; Line 188
	mov	eax, DWORD PTR srcYi$3[rsp]
	imul	eax, DWORD PTR row_padded$[rsp]
	cdqe
	mov	rcx, QWORD PTR src$[rsp]
	mov	rcx, QWORD PTR [rcx+56]
	add	rcx, rax
	mov	rax, rcx
	imul	ecx, DWORD PTR srcXi$4[rsp], 3
	movsxd	rcx, ecx
	add	rax, rcx
	mov	QWORD PTR srcPixel$6[rsp], rax
; Line 190
	mov	eax, 1
	imul	rax, rax, 0
	mov	ecx, 1
	imul	rcx, rcx, 0
	mov	rdx, QWORD PTR dstPixel$5[rsp]
	mov	rdi, QWORD PTR srcPixel$6[rsp]
	mov	al, BYTE PTR [rdi+rax]
	mov	BYTE PTR [rdx+rcx], al
; Line 191
	mov	eax, 1
	imul	rax, rax, 1
	mov	ecx, 1
	imul	rcx, rcx, 1
	mov	rdx, QWORD PTR dstPixel$5[rsp]
	mov	rdi, QWORD PTR srcPixel$6[rsp]
	mov	al, BYTE PTR [rdi+rax]
	mov	BYTE PTR [rdx+rcx], al
; Line 192
	mov	eax, 1
	imul	rax, rax, 2
	mov	ecx, 1
	imul	rcx, rcx, 2
	mov	rdx, QWORD PTR dstPixel$5[rsp]
	mov	rdi, QWORD PTR srcPixel$6[rsp]
	mov	al, BYTE PTR [rdi+rax]
	mov	BYTE PTR [rdx+rcx], al
$LN14@rotate_bmp:
; Line 194
	jmp	$LN5@rotate_bmp
$LN6@rotate_bmp:
; Line 195
	jmp	$LN2@rotate_bmp
$LN3@rotate_bmp:
; Line 197
	mov	rax, QWORD PTR dst$[rsp]
$LN1@rotate_bmp:
; Line 198
	add	rsp, 152				; 00000098H
	pop	rdi
	pop	rsi
	ret	0
rotate_bmp ENDP
_TEXT	ENDS
; Function compile flags: /Odsp
_TEXT	SEGMENT
f$ = 32
filename$ = 64
image$ = 72
save_bmp PROC
; File C:\Software Analysis & Debugging\hw01\src\image.c
; Line 108
$LN4:
	mov	QWORD PTR [rsp+16], rdx
	mov	QWORD PTR [rsp+8], rcx
	sub	rsp, 56					; 00000038H
; Line 111
	lea	rdx, OFFSET FLAT:$SG12187
	mov	rcx, QWORD PTR filename$[rsp]
	call	fopen
	mov	QWORD PTR f$[rsp], rax
; Line 112
	cmp	QWORD PTR f$[rsp], 0
	jne	SHORT $LN2@save_bmp
; Line 113
	mov	eax, 1
	jmp	SHORT $LN1@save_bmp
$LN2@save_bmp:
; Line 116
	mov	rax, QWORD PTR image$[rsp]
	mov	r9, QWORD PTR f$[rsp]
	mov	r8d, 1
	mov	edx, 14
	mov	rcx, rax
	call	fwrite
; Line 117
	mov	rax, QWORD PTR image$[rsp]
	add	rax, 14
	mov	r9, QWORD PTR f$[rsp]
	mov	r8d, 1
	mov	edx, 40					; 00000028H
	mov	rcx, rax
	call	fwrite
; Line 120
	mov	rax, QWORD PTR image$[rsp]
	mov	eax, DWORD PTR [rax+34]
	mov	r9, QWORD PTR f$[rsp]
	mov	r8d, eax
	mov	edx, 1
	mov	rax, QWORD PTR image$[rsp]
	mov	rcx, QWORD PTR [rax+56]
	call	fwrite
; Line 122
	mov	rcx, QWORD PTR f$[rsp]
	call	fclose
; Line 123
	xor	eax, eax
$LN1@save_bmp:
; Line 124
	add	rsp, 56					; 00000038H
	ret	0
save_bmp ENDP
_TEXT	ENDS
; Function compile flags: /Odsp
_TEXT	SEGMENT
x$1 = 0
y$2 = 4
width$ = 8
height$ = 12
row_padded$ = 16
row$3 = 24
image$ = 48
color$ = 56
fill_bmp PROC
; File C:\Software Analysis & Debugging\hw01\src\image.c
; Line 74
$LN12:
	mov	QWORD PTR [rsp+16], rdx
	mov	QWORD PTR [rsp+8], rcx
	sub	rsp, 40					; 00000028H
; Line 77
	cmp	QWORD PTR image$[rsp], 0
	je	SHORT $LN9@fill_bmp
	mov	rax, QWORD PTR image$[rsp]
	cmp	QWORD PTR [rax+56], 0
	jne	SHORT $LN8@fill_bmp
$LN9@fill_bmp:
; Line 78
	jmp	$LN1@fill_bmp
$LN8@fill_bmp:
; Line 81
	mov	rax, QWORD PTR image$[rsp]
	movzx	eax, WORD PTR [rax+28]
	cmp	eax, 24
	je	SHORT $LN10@fill_bmp
; Line 82
	jmp	$LN1@fill_bmp
$LN10@fill_bmp:
; Line 85
	mov	rax, QWORD PTR image$[rsp]
	mov	eax, DWORD PTR [rax+18]
	mov	DWORD PTR width$[rsp], eax
; Line 86
	mov	rax, QWORD PTR image$[rsp]
	mov	eax, DWORD PTR [rax+22]
	mov	DWORD PTR height$[rsp], eax
; Line 88
	imul	eax, DWORD PTR width$[rsp], 3
	add	eax, 3
	and	eax, -4
	mov	DWORD PTR row_padded$[rsp], eax
; Line 91
	mov	DWORD PTR y$2[rsp], 0
	jmp	SHORT $LN4@fill_bmp
$LN2@fill_bmp:
	mov	eax, DWORD PTR y$2[rsp]
	inc	eax
	mov	DWORD PTR y$2[rsp], eax
$LN4@fill_bmp:
	mov	eax, DWORD PTR height$[rsp]
	cmp	DWORD PTR y$2[rsp], eax
	jge	$LN3@fill_bmp
; Line 93
	mov	eax, DWORD PTR y$2[rsp]
	imul	eax, DWORD PTR row_padded$[rsp]
	cdqe
	mov	rcx, QWORD PTR image$[rsp]
	add	rax, QWORD PTR [rcx+56]
	mov	QWORD PTR row$3[rsp], rax
; Line 94
	mov	DWORD PTR x$1[rsp], 0
	jmp	SHORT $LN7@fill_bmp
$LN5@fill_bmp:
	mov	eax, DWORD PTR x$1[rsp]
	inc	eax
	mov	DWORD PTR x$1[rsp], eax
$LN7@fill_bmp:
	mov	eax, DWORD PTR width$[rsp]
	cmp	DWORD PTR x$1[rsp], eax
	jge	SHORT $LN6@fill_bmp
; Line 97
	mov	eax, 1
	imul	rax, rax, 2
	imul	ecx, DWORD PTR x$1[rsp], 3
	movsxd	rcx, ecx
	mov	rdx, QWORD PTR row$3[rsp]
	mov	r8, QWORD PTR color$[rsp]
	mov	al, BYTE PTR [r8+rax]
	mov	BYTE PTR [rdx+rcx], al
; Line 98
	mov	eax, 1
	imul	rax, rax, 1
	imul	ecx, DWORD PTR x$1[rsp], 3
	inc	ecx
	movsxd	rcx, ecx
	mov	rdx, QWORD PTR row$3[rsp]
	mov	r8, QWORD PTR color$[rsp]
	mov	al, BYTE PTR [r8+rax]
	mov	BYTE PTR [rdx+rcx], al
; Line 99
	mov	eax, 1
	imul	rax, rax, 0
	imul	ecx, DWORD PTR x$1[rsp], 3
	add	ecx, 2
	movsxd	rcx, ecx
	mov	rdx, QWORD PTR row$3[rsp]
	mov	r8, QWORD PTR color$[rsp]
	mov	al, BYTE PTR [r8+rax]
	mov	BYTE PTR [rdx+rcx], al
; Line 100
	jmp	SHORT $LN5@fill_bmp
$LN6@fill_bmp:
; Line 101
	jmp	$LN2@fill_bmp
$LN3@fill_bmp:
$LN1@fill_bmp:
; Line 102
	add	rsp, 40					; 00000028H
	ret	0
fill_bmp ENDP
_TEXT	ENDS
; Function compile flags: /Odsp
_TEXT	SEGMENT
image$ = 48
free_bmp PROC
; File C:\Software Analysis & Debugging\hw01\src\image.c
; Line 62
$LN4:
	mov	QWORD PTR [rsp+8], rcx
	sub	rsp, 40					; 00000028H
; Line 63
	cmp	QWORD PTR image$[rsp], 0
	je	SHORT $LN2@free_bmp
; Line 65
	mov	rax, QWORD PTR image$[rsp]
	mov	rcx, QWORD PTR [rax+56]
	call	free
; Line 66
	mov	rcx, QWORD PTR image$[rsp]
	call	free
	npad	1
$LN2@free_bmp:
; Line 68
	add	rsp, 40					; 00000028H
	ret	0
free_bmp ENDP
_TEXT	ENDS
; Function compile flags: /Odsp
_TEXT	SEGMENT
img$ = 32
file$ = 40
filename$ = 64
load_bmp PROC
; File C:\Software Analysis & Debugging\hw01\src\image.c
; Line 12
$LN7:
	mov	QWORD PTR [rsp+8], rcx
	sub	rsp, 56					; 00000038H
; Line 15
	lea	rdx, OFFSET FLAT:$SG12153
	mov	rcx, QWORD PTR filename$[rsp]
	call	fopen
	mov	QWORD PTR file$[rsp], rax
; Line 16
	cmp	QWORD PTR file$[rsp], 0
	jne	SHORT $LN2@load_bmp
; Line 18
	lea	rcx, OFFSET FLAT:$SG12155
	call	perror
; Line 19
	xor	eax, eax
	jmp	$LN1@load_bmp
$LN2@load_bmp:
; Line 23
	mov	ecx, 64					; 00000040H
	call	malloc
	mov	QWORD PTR img$[rsp], rax
; Line 24
	cmp	QWORD PTR img$[rsp], 0
	jne	SHORT $LN3@load_bmp
; Line 26
	mov	rcx, QWORD PTR file$[rsp]
	call	fclose
; Line 27
	xor	eax, eax
	jmp	$LN1@load_bmp
$LN3@load_bmp:
; Line 31
	mov	rax, QWORD PTR img$[rsp]
	mov	r9, QWORD PTR file$[rsp]
	mov	r8d, 1
	mov	edx, 14
	mov	rcx, rax
	call	fread
; Line 32
	mov	rax, QWORD PTR img$[rsp]
	add	rax, 14
	mov	r9, QWORD PTR file$[rsp]
	mov	r8d, 1
	mov	edx, 40					; 00000028H
	mov	rcx, rax
	call	fread
; Line 35
	mov	rax, QWORD PTR img$[rsp]
	movzx	eax, WORD PTR [rax]
	cmp	eax, 19778				; 00004d42H
	je	SHORT $LN4@load_bmp
; Line 37
	mov	ecx, 2
	call	__acrt_iob_func
	lea	rdx, OFFSET FLAT:$SG12158
	mov	rcx, rax
	call	fprintf
; Line 38
	mov	rcx, QWORD PTR img$[rsp]
	call	free
; Line 39
	mov	rcx, QWORD PTR file$[rsp]
	call	fclose
; Line 40
	xor	eax, eax
	jmp	$LN1@load_bmp
$LN4@load_bmp:
; Line 44
	mov	rax, QWORD PTR img$[rsp]
	mov	eax, DWORD PTR [rax+34]
	mov	ecx, eax
	call	malloc
	mov	rcx, QWORD PTR img$[rsp]
	mov	QWORD PTR [rcx+56], rax
; Line 45
	mov	rax, QWORD PTR img$[rsp]
	cmp	QWORD PTR [rax+56], 0
	jne	SHORT $LN5@load_bmp
; Line 47
	mov	rcx, QWORD PTR img$[rsp]
	call	free
; Line 48
	mov	rcx, QWORD PTR file$[rsp]
	call	fclose
; Line 49
	xor	eax, eax
	jmp	SHORT $LN1@load_bmp
$LN5@load_bmp:
; Line 53
	xor	r8d, r8d
	mov	rax, QWORD PTR img$[rsp]
	mov	edx, DWORD PTR [rax+10]
	mov	rcx, QWORD PTR file$[rsp]
	call	fseek
; Line 54
	mov	rax, QWORD PTR img$[rsp]
	mov	eax, DWORD PTR [rax+34]
	mov	r9, QWORD PTR file$[rsp]
	mov	r8d, eax
	mov	edx, 1
	mov	rax, QWORD PTR img$[rsp]
	mov	rcx, QWORD PTR [rax+56]
	call	fread
; Line 56
	mov	rcx, QWORD PTR file$[rsp]
	call	fclose
; Line 57
	mov	rax, QWORD PTR img$[rsp]
$LN1@load_bmp:
; Line 58
	add	rsp, 56					; 00000038H
	ret	0
load_bmp ENDP
_TEXT	ENDS
; Function compile flags: /Odsp
;	COMDAT printf
_TEXT	SEGMENT
_Result$ = 32
_ArgList$ = 40
_Format$ = 64
printf	PROC						; COMDAT
; File C:\Program Files (x86)\Windows Kits\10\include\10.0.26100.0\ucrt\stdio.h
; Line 956
$LN3:
	mov	QWORD PTR [rsp+8], rcx
	mov	QWORD PTR [rsp+16], rdx
	mov	QWORD PTR [rsp+24], r8
	mov	QWORD PTR [rsp+32], r9
	sub	rsp, 56					; 00000038H
; Line 959
	lea	rax, QWORD PTR _Format$[rsp+8]
	mov	QWORD PTR _ArgList$[rsp], rax
; Line 960
	mov	ecx, 1
	call	__acrt_iob_func
	mov	r9, QWORD PTR _ArgList$[rsp]
	xor	r8d, r8d
	mov	rdx, QWORD PTR _Format$[rsp]
	mov	rcx, rax
	call	_vfprintf_l
	mov	DWORD PTR _Result$[rsp], eax
; Line 961
	mov	QWORD PTR _ArgList$[rsp], 0
; Line 962
	mov	eax, DWORD PTR _Result$[rsp]
; Line 963
	add	rsp, 56					; 00000038H
	ret	0
printf	ENDP
_TEXT	ENDS
; Function compile flags: /Odsp
;	COMDAT fprintf
_TEXT	SEGMENT
_Result$ = 32
_ArgList$ = 40
_Stream$ = 64
_Format$ = 72
fprintf	PROC						; COMDAT
; File C:\Program Files (x86)\Windows Kits\10\include\10.0.26100.0\ucrt\stdio.h
; Line 837
$LN3:
	mov	QWORD PTR [rsp+16], rdx
	mov	QWORD PTR [rsp+8], rcx
	mov	QWORD PTR [rsp+24], r8
	mov	QWORD PTR [rsp+32], r9
	sub	rsp, 56					; 00000038H
; Line 840
	lea	rax, QWORD PTR _Format$[rsp+8]
	mov	QWORD PTR _ArgList$[rsp], rax
; Line 841
	mov	r9, QWORD PTR _ArgList$[rsp]
	xor	r8d, r8d
	mov	rdx, QWORD PTR _Format$[rsp]
	mov	rcx, QWORD PTR _Stream$[rsp]
	call	_vfprintf_l
	mov	DWORD PTR _Result$[rsp], eax
; Line 842
	mov	QWORD PTR _ArgList$[rsp], 0
; Line 843
	mov	eax, DWORD PTR _Result$[rsp]
; Line 844
	add	rsp, 56					; 00000038H
	ret	0
fprintf	ENDP
_TEXT	ENDS
; Function compile flags: /Odsp
;	COMDAT _vfprintf_l
_TEXT	SEGMENT
_Stream$ = 64
_Format$ = 72
_Locale$ = 80
_ArgList$ = 88
_vfprintf_l PROC					; COMDAT
; File C:\Program Files (x86)\Windows Kits\10\include\10.0.26100.0\ucrt\stdio.h
; Line 644
$LN3:
	mov	QWORD PTR [rsp+32], r9
	mov	QWORD PTR [rsp+24], r8
	mov	QWORD PTR [rsp+16], rdx
	mov	QWORD PTR [rsp+8], rcx
	sub	rsp, 56					; 00000038H
; Line 645
	call	__local_stdio_printf_options
	mov	rcx, QWORD PTR _ArgList$[rsp]
	mov	QWORD PTR [rsp+32], rcx
	mov	r9, QWORD PTR _Locale$[rsp]
	mov	r8, QWORD PTR _Format$[rsp]
	mov	rdx, QWORD PTR _Stream$[rsp]
	mov	rcx, QWORD PTR [rax]
	call	__stdio_common_vfprintf
; Line 646
	add	rsp, 56					; 00000038H
	ret	0
_vfprintf_l ENDP
_TEXT	ENDS
; Function compile flags: /Odsp
;	COMDAT __local_stdio_printf_options
_TEXT	SEGMENT
__local_stdio_printf_options PROC			; COMDAT
; File C:\Program Files (x86)\Windows Kits\10\include\10.0.26100.0\ucrt\corecrt_stdio_config.h
; Line 92
	lea	rax, OFFSET FLAT:?_OptionsStorage@?1??__local_stdio_printf_options@@9@9 ; `__local_stdio_printf_options'::`2'::_OptionsStorage
; Line 93
	ret	0
__local_stdio_printf_options ENDP
_TEXT	ENDS
END
